(dp0
S'rory-mccann'
p1
I20
sS'sophie-turner'
p2
I22
sS'peter-dinklage'
p3
I18
sS'gwendoline-christie'
p4
I6
sS'richard-madden'
p5
I19
sS'smnc'
p6
I21
sS'lena-headey'
p7
I12
sS'iain-glen'
p8
I7
sS'conleth-hill'
p9
I4
sS'natalie-dormer'
p10
I15
sS'yuno'
p11
I23
sS'alfie-allen'
p12
I1
sS'nathalie-emmanuel'
p13
I16
sS'cagri'
p14
I2
sS'john-bradley'
p15
I10
sS'isaac-hempstead-wright'
p16
I8
sS'emilia-clarke'
p17
I5
sS'carice-van-houten'
p18
I3
sS'kit-harington'
p19
I11
sS'aidan-gillen'
p20
I0
sS'liam-cunningham'
p21
I13
sS'nikolaj-coster-waldau'
p22
I17
sS'jason-momoa'
p23
I9
sS'maisie-williams'
p24
I14
s.